target datalayout = "e-m:e-p270:32:32-p271:32:32-p272:64:64-i64:64-i128:128-f80:128-n8:16:32:64-S128"
target triple = "x86_64-pc-linux-gnu"

%"class.Ipopt::TNLPAdapter" = type { %"class.Ipopt::NLP.base", %"class.Ipopt::SmartPtr", %"class.Ipopt::SmartPtr.0", %"class.Ipopt::SmartPtr.1", double, double, i32, double, i32, double, double, i8, i32, i8, i32, i32, i32, i32, double, double, i8, double, i32, i32, i32, i32, i32, i32, i32, i32, i32, i32, %"class.Ipopt::SmartPtr.2", %"class.Ipopt::SmartPtr.2", %"class.Ipopt::SmartPtr.2", %"class.Ipopt::SmartPtr.2", %"class.Ipopt::SmartPtr.3", %"class.Ipopt::SmartPtr.2", %"class.Ipopt::SmartPtr.3", %"class.Ipopt::SmartPtr.2", %"class.Ipopt::SmartPtr.3", %"class.Ipopt::SmartPtr.2", %"class.Ipopt::SmartPtr.3", %"class.Ipopt::SmartPtr.3", %"class.Ipopt::SmartPtr.3", %"class.Ipopt::SmartPtr.4", ptr, ptr, ptr, ptr, ptr, i32, i32, i32, i32, i32, %"class.Ipopt::SmartPtr.5", %"class.Ipopt::SmartPtr.6", %"class.Ipopt::SmartPtr.5", %"class.Ipopt::SmartPtr.6", %"class.Ipopt::SmartPtr.5", %"class.Ipopt::SmartPtr.6", %"class.Ipopt::SmartPtr.6", %"class.Ipopt::SmartPtr.5", %"class.Ipopt::SmartPtr.6", %"class.Ipopt::SmartPtr.5", ptr, ptr, ptr, %"class.std::vector", %"class.std::vector", %"class.std::vector", i32, ptr, ptr, ptr, ptr, ptr }
%"class.Ipopt::NLP.base" = type { %"class.Ipopt::ReferencedObject.base" }
%"class.Ipopt::ReferencedObject.base" = type <{ ptr, i32 }>
%"class.Ipopt::SmartPtr" = type { ptr }
%"class.Ipopt::SmartPtr.0" = type { ptr }
%"class.Ipopt::SmartPtr.1" = type { ptr }
%"class.Ipopt::SmartPtr.2" = type { ptr }
%"class.Ipopt::SmartPtr.3" = type { ptr }
%"class.Ipopt::SmartPtr.4" = type { ptr }
%"class.Ipopt::SmartPtr.6" = type { ptr }
%"class.Ipopt::SmartPtr.5" = type { ptr }
%"class.std::vector" = type { %"struct.std::_Vector_base" }
%"struct.std::_Vector_base" = type { %"struct.std::_Vector_base<int, std::allocator<int>>::_Vector_impl" }
%"struct.std::_Vector_base<int, std::allocator<int>>::_Vector_impl" = type { %"struct.std::_Vector_base<int, std::allocator<int>>::_Vector_impl_data" }
%"struct.std::_Vector_base<int, std::allocator<int>>::_Vector_impl_data" = type { ptr, ptr, ptr }
%"class.Ipopt::Matrix.base" = type <{ %"class.Ipopt::TaggedObject", %"class.Ipopt::SmartPtr.3", i32, i8 }>
%"class.Ipopt::TaggedObject" = type { %"class.Ipopt::ReferencedObject.base", %"class.Ipopt::Subject", i32, i32 }
%"class.Ipopt::Subject" = type { ptr, %"class.std::vector.58" }
%"class.std::vector.58" = type { %"struct.std::_Vector_base.59" }
%"struct.std::_Vector_base.59" = type { %"struct.std::_Vector_base<Ipopt::Observer *, std::allocator<Ipopt::Observer *>>::_Vector_impl" }
%"struct.std::_Vector_base<Ipopt::Observer *, std::allocator<Ipopt::Observer *>>::_Vector_impl" = type { %"struct.std::_Vector_base<Ipopt::Observer *, std::allocator<Ipopt::Observer *>>::_Vector_impl_data" }
%"struct.std::_Vector_base<Ipopt::Observer *, std::allocator<Ipopt::Observer *>>::_Vector_impl_data" = type { ptr, ptr, ptr }
%"class.Ipopt::GenTMatrix" = type <{ %"class.Ipopt::Matrix.base", [3 x i8], ptr, ptr, i8, [7 x i8] }>

; Function Attrs: mustprogress nounwind uwtable
define linkonce_odr noundef i32 @_ZNK5Ipopt12TaggedObject6GetTagEv(ptr noundef nonnull align 8 dereferenceable(56) %0) #5 comdat align 2 {
  %2 = alloca ptr, align 8
  store ptr %0, ptr %2, align 8, !tbaa !429
  %3 = load ptr, ptr %2, align 8
  %4 = getelementptr inbounds nuw %"class.Ipopt::TaggedObject", ptr %3, i32 0, i32 2
  %5 = load i32, ptr %4, align 8, !tbaa !431
  ret i32 %5
}

; Function Attrs: mustprogress uwtable
define linkonce_odr noundef ptr @_ZN5Ipopt10GenTMatrix6ValuesEv(ptr noundef nonnull align 8 dereferenceable(89) %0) #4 comdat align 2 {
  %2 = alloca ptr, align 8
  store ptr %0, ptr %2, align 8, !tbaa !355
  %3 = load ptr, ptr %2, align 8
  call void @_ZN5Ipopt12TaggedObject13ObjectChangedEv(ptr noundef nonnull align 8 dereferenceable(56) %3)
  %4 = getelementptr inbounds nuw %"class.Ipopt::GenTMatrix", ptr %3, i32 0, i32 4
  store i8 1, ptr %4, align 8, !tbaa !360
  %5 = getelementptr inbounds nuw %"class.Ipopt::GenTMatrix", ptr %3, i32 0, i32 3
  %6 = load ptr, ptr %5, align 8, !tbaa !363
  ret ptr %6
}

; Function Attrs: mustprogress uwtable
define noundef zeroext i1 @_ZN5Ipopt11TNLPAdapter14update_local_xERKNS_6VectorE(ptr noundef nonnull align 8 dereferenceable(600) %0, ptr noundef nonnull align 8 dereferenceable(205) %1) #4 align 2 {
  %3 = alloca i1, align 1
  %4 = alloca ptr, align 8
  %5 = alloca ptr, align 8
  store ptr %0, ptr %4, align 8, !tbaa !3
  store ptr %1, ptr %5, align 8, !tbaa !314
  %6 = load ptr, ptr %4, align 8
  %7 = load ptr, ptr %5, align 8, !tbaa !314
  %8 = call noundef i32 @_ZNK5Ipopt12TaggedObject6GetTagEv(ptr noundef nonnull align 8 dereferenceable(56) %7)
  %9 = getelementptr inbounds nuw %"class.Ipopt::TNLPAdapter", ptr %6, i32 0, i32 51
  %10 = load i32, ptr %9, align 8, !tbaa !53
  %11 = icmp eq i32 %8, %10
  br i1 %11, label %12, label %13

12:                                               ; preds = %2
  store i1 false, ptr %3, align 1
  br label %20

13:                                               ; preds = %2
  %14 = load ptr, ptr %5, align 8, !tbaa !314
  %15 = getelementptr inbounds nuw %"class.Ipopt::TNLPAdapter", ptr %6, i32 0, i32 46
  %16 = load ptr, ptr %15, align 8, !tbaa !14
  call void @_ZN5Ipopt11TNLPAdapter7ResortXERKNS_6VectorEPdb(ptr noundef nonnull align 8 dereferenceable(600) %6, ptr noundef nonnull align 8 dereferenceable(205) %14, ptr noundef %16, i1 noundef zeroext true)
  %17 = load ptr, ptr %5, align 8, !tbaa !314
  %18 = call noundef i32 @_ZNK5Ipopt12TaggedObject6GetTagEv(ptr noundef nonnull align 8 dereferenceable(56) %17)
  %19 = getelementptr inbounds nuw %"class.Ipopt::TNLPAdapter", ptr %6, i32 0, i32 51
  store i32 %18, ptr %19, align 8, !tbaa !53
  store i1 true, ptr %3, align 1
  br label %20

20:                                               ; preds = %13, %12
  %21 = load i1, ptr %3, align 1
  ret i1 %21
}

; Function Attrs: mustprogress uwtable
define noundef zeroext i1 @_ZN5Ipopt11TNLPAdapter10Eval_jac_cERKNS_6VectorERNS_6MatrixE(ptr noundef nonnull align 8 dereferenceable(600) %0, ptr noundef nonnull align 8 dereferenceable(205) %1, ptr noundef nonnull align 8 dereferenceable(69) %2) unnamed_addr #4 align 2 {
  %4 = alloca i1, align 1
  %5 = alloca ptr, align 8
  %6 = alloca ptr, align 8
  %7 = alloca ptr, align 8
  %8 = alloca i8, align 1
  %9 = alloca ptr, align 8
  %10 = alloca ptr, align 8
  %11 = alloca i32, align 4
  %12 = alloca double, align 8
  %13 = alloca i32, align 4
  store ptr %0, ptr %5, align 8, !tbaa !3
  store ptr %1, ptr %6, align 8, !tbaa !314
  store ptr %2, ptr %7, align 8, !tbaa !312
  %14 = load ptr, ptr %5, align 8
  call void @llvm.lifetime.start.p0(i64 1, ptr %8) #3
  store i8 0, ptr %8, align 1, !tbaa !133
  %15 = load ptr, ptr %6, align 8, !tbaa !314
  %16 = call noundef zeroext i1 @_ZN5Ipopt11TNLPAdapter14update_local_xERKNS_6VectorE(ptr noundef nonnull align 8 dereferenceable(600) %14, ptr noundef nonnull align 8 dereferenceable(205) %15)
  br i1 %16, label %17, label %18

17:                                               ; preds = %3
  store i8 1, ptr %8, align 1, !tbaa !133
  br label %18

18:                                               ; preds = %17, %3
  %19 = load i8, ptr %8, align 1, !tbaa !133, !range !134, !noundef !135
  %20 = trunc i8 %19 to i1
  %21 = call noundef zeroext i1 @_ZN5Ipopt11TNLPAdapter19internal_eval_jac_gEb(ptr noundef nonnull align 8 dereferenceable(600) %14, i1 noundef zeroext %20)
  br i1 %21, label %22, label %64

22:                                               ; preds = %18
  call void @llvm.lifetime.start.p0(i64 8, ptr %9) #3
  %23 = load ptr, ptr %7, align 8, !tbaa !312
  store ptr %23, ptr %9, align 8, !tbaa !355
  call void @llvm.lifetime.start.p0(i64 8, ptr %10) #3
  %24 = load ptr, ptr %9, align 8, !tbaa !355
  %25 = call noundef ptr @_ZN5Ipopt10GenTMatrix6ValuesEv(ptr noundef nonnull align 8 dereferenceable(89) %24)
  store ptr %25, ptr %10, align 8, !tbaa !142
  call void @llvm.lifetime.start.p0(i64 4, ptr %11) #3
  store i32 0, ptr %11, align 4, !tbaa !98
  br label %26

26:                                               ; preds = %48, %22
  %27 = load i32, ptr %11, align 4, !tbaa !98
  %28 = getelementptr inbounds nuw %"class.Ipopt::TNLPAdapter", ptr %14, i32 0, i32 25
  %29 = load i32, ptr %28, align 4, !tbaa !188
  %30 = icmp slt i32 %27, %29
  br i1 %30, label %32, label %31

31:                                               ; preds = %26
  call void @llvm.lifetime.end.p0(i64 4, ptr %11) #3
  br label %51

32:                                               ; preds = %26
  %33 = getelementptr inbounds nuw %"class.Ipopt::TNLPAdapter", ptr %14, i32 0, i32 49
  %34 = load ptr, ptr %33, align 8, !tbaa !51
  %35 = getelementptr inbounds nuw %"class.Ipopt::TNLPAdapter", ptr %14, i32 0, i32 66
  %36 = load ptr, ptr %35, align 8, !tbaa !58
  %37 = load i32, ptr %11, align 4, !tbaa !98
  %38 = sext i32 %37 to i64
  %39 = getelementptr inbounds i32, ptr %36, i64 %38
  %40 = load i32, ptr %39, align 4, !tbaa !98
  %41 = sext i32 %40 to i64
  %42 = getelementptr inbounds double, ptr %34, i64 %41
  %43 = load double, ptr %42, align 8, !tbaa !145
  %44 = load ptr, ptr %10, align 8, !tbaa !142
  %45 = load i32, ptr %11, align 4, !tbaa !98
  %46 = sext i32 %45 to i64
  %47 = getelementptr inbounds double, ptr %44, i64 %46
  store double %43, ptr %47, align 8, !tbaa !145
  br label %48

48:                                               ; preds = %32
  %49 = load i32, ptr %11, align 4, !tbaa !98
  %50 = add nsw i32 %49, 1
  store i32 %50, ptr %11, align 4, !tbaa !98
  br label %26, !llvm.loop !357

51:                                               ; preds = %31
  %52 = getelementptr inbounds nuw %"class.Ipopt::TNLPAdapter", ptr %14, i32 0, i32 6
  %53 = load i32, ptr %52, align 8, !tbaa !115
  %54 = icmp eq i32 %53, 2
  br i1 %54, label %55, label %63

55:                                               ; preds = %51
  call void @llvm.lifetime.start.p0(i64 8, ptr %12) #3
  store double 1.000000e+00, ptr %12, align 8, !tbaa !145
  %56 = getelementptr inbounds nuw %"class.Ipopt::TNLPAdapter", ptr %14, i32 0, i32 30
  %57 = load i32, ptr %56, align 8, !tbaa !144
  %58 = load ptr, ptr %10, align 8, !tbaa !142
  %59 = getelementptr inbounds nuw %"class.Ipopt::TNLPAdapter", ptr %14, i32 0, i32 25
  %60 = load i32, ptr %59, align 4, !tbaa !188
  %61 = sext i32 %60 to i64
  %62 = getelementptr inbounds double, ptr %58, i64 %61
  call void @_ZN5Ipopt10IpBlasCopyEiPKdiPdi(i32 noundef %57, ptr noundef %12, i32 noundef 0, ptr noundef %62, i32 noundef 1)
  call void @llvm.lifetime.end.p0(i64 8, ptr %12) #3
  br label %63

63:                                               ; preds = %55, %51
  store i1 true, ptr %4, align 1
  store i32 1, ptr %13, align 4
  call void @llvm.lifetime.end.p0(i64 8, ptr %10) #3
  call void @llvm.lifetime.end.p0(i64 8, ptr %9) #3
  br label %65

64:                                               ; preds = %18
  store i1 false, ptr %4, align 1
  store i32 1, ptr %13, align 4
  br label %65

65:                                               ; preds = %64, %63
  call void @llvm.lifetime.end.p0(i64 1, ptr %8) #3
  %66 = load i1, ptr %4, align 1
  ret i1 %66
}