; Function Attrs: mustprogress uwtable
define noundef zeroext i1 @_ZN5Ipopt11TNLPAdapter10Eval_jac_cERKNS_6VectorERNS_6MatrixE(ptr noundef nonnull align 8 captures(none) dereferenceable(600) %0, ptr noundef nonnull readonly align 8 captures(none) dereferenceable(205) %1, ptr noundef nonnull align 8 dereferenceable(69) %2) unnamed_addr #3 align 2 {
  %4 = alloca double, align 8
  %5 = getelementptr inbounds nuw i8, ptr %1, i64 48
  %6 = load i32, ptr %5, align 8, !tbaa !275
  %7 = getelementptr inbounds nuw i8, ptr %0, i64 352
  %8 = load i32, ptr %7, align 8, !tbaa !276
  %9 = icmp ne i32 %6, %8
  br i1 %9, label %10, label %_ZN5Ipopt11TNLPAdapter14update_local_xERKNS_6VectorE.exit

10:                                               ; preds = %3
  %11 = getelementptr inbounds nuw i8, ptr %0, i64 312
  %12 = load ptr, ptr %11, align 8, !tbaa !48
  tail call void @_ZN5Ipopt11TNLPAdapter7ResortXERKNS_6VectorEPdb(ptr noundef nonnull align 8 dereferenceable(600) %0, ptr noundef nonnull readonly align 8 dereferenceable(205) %1, ptr noundef %12, i1 noundef zeroext true)
  %13 = load i32, ptr %5, align 8, !tbaa !275
  store i32 %13, ptr %7, align 8, !tbaa !276
  br label %_ZN5Ipopt11TNLPAdapter14update_local_xERKNS_6VectorE.exit

_ZN5Ipopt11TNLPAdapter14update_local_xERKNS_6VectorE.exit: ; preds = %3, %10
  %14 = tail call noundef zeroext i1 @_ZN5Ipopt11TNLPAdapter19internal_eval_jac_gEb(ptr noundef nonnull align 8 dereferenceable(600) %0, i1 noundef zeroext %9)
  br i1 %14, label %15, label %41

15:                                               ; preds = %_ZN5Ipopt11TNLPAdapter14update_local_xERKNS_6VectorE.exit
  tail call void @_ZN5Ipopt12TaggedObject13ObjectChangedEv(ptr noundef nonnull align 8 dereferenceable(89) %2)
  %16 = getelementptr inbounds nuw i8, ptr %2, i64 88
  store i8 1, ptr %16, align 8, !tbaa !284
  %17 = getelementptr inbounds nuw i8, ptr %2, i64 80
  %18 = load ptr, ptr %17, align 8, !tbaa !287
  %19 = getelementptr inbounds nuw i8, ptr %0, i64 172
  %20 = load i32, ptr %19, align 4, !tbaa !196
  %21 = icmp sgt i32 %20, 0
  br i1 %21, label %.lr.ph, label %._crit_edge

.lr.ph:                                           ; preds = %15
  %22 = getelementptr inbounds nuw i8, ptr %0, i64 336
  %23 = load ptr, ptr %22, align 8, !tbaa !65
  %24 = getelementptr inbounds nuw i8, ptr %0, i64 456
  %25 = load ptr, ptr %24, align 8, !tbaa !67
  %wide.trip.count = zext nneg i32 %20 to i64
  br label %29

._crit_edge:                                      ; preds = %29, %15
  %26 = getelementptr inbounds nuw i8, ptr %0, i64 56
  %27 = load i32, ptr %26, align 8, !tbaa !88
  %28 = icmp eq i32 %27, 2
  br i1 %28, label %36, label %41

29:                                               ; preds = %.lr.ph, %29
  %indvars.iv = phi i64 [ 0, %.lr.ph ], [ %indvars.iv.next, %29 ]
  %30 = getelementptr inbounds nuw i32, ptr %25, i64 %indvars.iv
  %31 = load i32, ptr %30, align 4, !tbaa !87
  %32 = sext i32 %31 to i64
  %33 = getelementptr inbounds double, ptr %23, i64 %32
  %34 = load double, ptr %33, align 8, !tbaa !123
  %35 = getelementptr inbounds nuw double, ptr %18, i64 %indvars.iv
  store double %34, ptr %35, align 8, !tbaa !123
  %indvars.iv.next = add nuw nsw i64 %indvars.iv, 1
  %exitcond.not = icmp eq i64 %indvars.iv.next, %wide.trip.count
  br i1 %exitcond.not, label %._crit_edge, label %29, !llvm.loop !288

36:                                               ; preds = %._crit_edge
  call void @llvm.lifetime.start.p0(i64 8, ptr nonnull %4) #26
  store double 1.000000e+00, ptr %4, align 8, !tbaa !123
  %37 = getelementptr inbounds nuw i8, ptr %0, i64 192
  %38 = load i32, ptr %37, align 8, !tbaa !122
  %39 = sext i32 %20 to i64
  %40 = getelementptr inbounds double, ptr %18, i64 %39
  call void @_ZN5Ipopt10IpBlasCopyEiPKdiPdi(i32 noundef %38, ptr noundef nonnull %4, i32 noundef 0, ptr noundef %40, i32 noundef 1)
  call void @llvm.lifetime.end.p0(i64 8, ptr nonnull %4) #26
  br label %41

41:                                               ; preds = %_ZN5Ipopt11TNLPAdapter14update_local_xERKNS_6VectorE.exit, %._crit_edge, %36
  ret i1 %14
}